; Function Attrs: mustprogress uwtable
define void @_ZN6google8protobuf10FeatureSet5ClearEv(ptr noundef nonnull align 8 dereferenceable(72) %this) unnamed_addr #3 align 2 {
entry:
  %0 = getelementptr inbounds i8, ptr %this, i64 16
  tail call void @_ZN6google8protobuf8internal12ExtensionSet5ClearEv(ptr noundef nonnull align 8 dereferenceable(24) %0)
  %_has_bits_ = getelementptr inbounds i8, ptr %this, i64 40
  %1 = load i32, ptr %_has_bits_, align 8
  %and = and i32 %1, 63
  %tobool.not = icmp eq i32 %and, 0
  br i1 %tobool.not, label %if.end, label %if.then

if.then:                                          ; preds = %entry
  %field_presence_ = getelementptr inbounds i8, ptr %this, i64 48
  tail call void @llvm.memset.p0.i64(ptr noundef nonnull align 8 dereferenceable(24) %field_presence_, i8 0, i64 24, i1 false)
  br label %if.end

if.end:                                           ; preds = %if.then, %entry
  store i32 0, ptr %_has_bits_, align 8
  %_internal_metadata_ = getelementptr inbounds i8, ptr %this, i64 8
  %2 = load i64, ptr %_internal_metadata_, align 8
  %and.i = and i64 %2, 1
  %tobool.i.not = icmp eq i64 %and.i, 0
  br i1 %tobool.i.not, label %_ZN6google8protobuf8internal16InternalMetadata5ClearINS0_15UnknownFieldSetEEEvv.exit, label %if.then.i

if.then.i:                                        ; preds = %if.end
  tail call void @_ZN6google8protobuf8internal16InternalMetadata7DoClearINS0_15UnknownFieldSetEEEvv(ptr noundef nonnull align 8 dereferenceable(8) %_internal_metadata_)
  br label %_ZN6google8protobuf8internal16InternalMetadata5ClearINS0_15UnknownFieldSetEEEvv.exit

_ZN6google8protobuf8internal16InternalMetadata5ClearINS0_15UnknownFieldSetEEEvv.exit: ; preds = %if.then.i, %if.end
  ret void
}